; Function Attrs: mustprogress nofree norecurse nosync nounwind willreturn memory(argmem: write) uwtable
define void @_ZN7Imf_3_48TimeCodeC2EjjNS0_7PackingE(ptr noundef nonnull writeonly align 4 captures(none) dereferenceable(8) initializes((0, 8)) %0, i32 noundef %1, i32 noundef %2, i32 noundef %3) unnamed_addr #0 align 2 {
  switch i32 %3, label %.sink.split.i [
    i32 1, label %5
    i32 2, label %12
  ]

5:                                                ; preds = %4
  %6 = shl i32 %1, 8
  %7 = and i32 %6, -2139095040
  %8 = and i32 %1, 2139062207
  %9 = or disjoint i32 %7, %8
  store i32 %9, ptr %0, align 4, !tbaa !9
  %.not11.i = icmp sgt i32 %1, -1
  br i1 %.not11.i, label %_ZN7Imf_3_48TimeCode15setTimeAndFlagsEjNS0_7PackingE.exit, label %10

10:                                               ; preds = %5
  %11 = or disjoint i32 %9, 32768
  br label %.sink.split.i

12:                                               ; preds = %4
  %13 = and i32 %1, -193
  br label %.sink.split.i

.sink.split.i:                                    ; preds = %12, %10, %4
  %.sink.i = phi i32 [ %13, %12 ], [ %11, %10 ], [ %1, %4 ]
  store i32 %.sink.i, ptr %0, align 4, !tbaa !9
  br label %_ZN7Imf_3_48TimeCode15setTimeAndFlagsEjNS0_7PackingE.exit

_ZN7Imf_3_48TimeCode15setTimeAndFlagsEjNS0_7PackingE.exit: ; preds = %5, %.sink.split.i
  %14 = getelementptr inbounds nuw i8, ptr %0, i64 4
  store i32 %2, ptr %14, align 4, !tbaa !8
  ret void
}